target datalayout = "e-m:e-p270:32:32-p271:32:32-p272:64:64-i64:64-i128:128-f80:128-n8:16:32:64-S128"
target triple = "x86_64-pc-linux-gnu"

%"struct.boost::source_location" = type { ptr, ptr, i32, i32 }
%"class.boost::core::basic_string_view" = type { ptr, i64 }
%"class.boost::urls::segments_encoded_view" = type { %"class.boost::urls::segments_encoded_base" }
%"class.boost::urls::segments_encoded_base" = type { %"class.boost::urls::detail::path_ref" }
%"class.boost::urls::detail::path_ref" = type { ptr, ptr, i64, i64, i64 }
%"class.boost::system::result" = type { %"class.boost::variant2::variant" }
%"class.boost::variant2::variant" = type { %"struct.boost::variant2::detail::variant_ma_base_impl.base", [4 x i8] }
%"struct.boost::variant2::detail::variant_ma_base_impl.base" = type { %"struct.boost::variant2::detail::variant_mc_base_impl.base" }
%"struct.boost::variant2::detail::variant_mc_base_impl.base" = type { %"struct.boost::variant2::detail::variant_ca_base_impl.base" }
%"struct.boost::variant2::detail::variant_ca_base_impl.base" = type { %"struct.boost::variant2::detail::variant_cc_base_impl.base" }
%"struct.boost::variant2::detail::variant_cc_base_impl.base" = type { %"struct.boost::variant2::detail::variant_base_impl.base" }
%"struct.boost::variant2::detail::variant_base_impl.base" = type <{ %"union.boost::variant2::detail::variant_storage_impl", i32 }>
%"union.boost::variant2::detail::variant_storage_impl" = type { %"union.boost::variant2::detail::variant_storage_impl.1" }
%"union.boost::variant2::detail::variant_storage_impl.1" = type { %"class.boost::urls::segments_encoded_view" }
%"struct.boost::variant2::detail::variant_base_impl" = type <{ %"union.boost::variant2::detail::variant_storage_impl", i32, [4 x i8] }>

@.str = private unnamed_addr constant [128 x i8] c"generated/home/dtcxzyw/WorkSpace/Projects/compilers/llvm-opt-benchmark/bench/boost/boost/libs/url/src/segments_encoded_view.cpp\00", align 1
@.str.1 = private unnamed_addr constant [22 x i8] c"segments_encoded_view\00", align 1

; Function Attrs: mustprogress nounwind uwtable
define linkonce_odr hidden noundef nonnull align 8 dereferenceable(24) ptr @_ZN5boost8variant26detail20variant_storage_implISt17integral_constantIbLb1EEJNS_6system10error_codeEEE3getES3_ImLm0EE(ptr noundef nonnull align 8 dereferenceable(24) %0) #2 comdat align 2 {
  %2 = alloca ptr, align 8
  store ptr %0, ptr %2, align 8, !tbaa !7
  %3 = load ptr, ptr %2, align 8
  ret ptr %3
}

; Function Attrs: mustprogress nounwind uwtable
define linkonce_odr hidden noundef nonnull align 8 dereferenceable(24) ptr @_ZN5boost8variant26detail20variant_storage_implISt17integral_constantIbLb1EEJNS_4urls21segments_encoded_viewENS_6system10error_codeEEE3getILm1EEERNS_4mp116detail12mp_if_c_implIXltmiT_Li1EL_ZNS3_ImLm1EE5valueEEENSC_12mp_at_c_implINSB_7mp_listIJS8_EEEXmiT_Li1EEEEJvEE4type4typeES3_ImXT_EE(ptr noundef nonnull align 8 dereferenceable(40) %0) #2 comdat align 2 {
  %2 = alloca ptr, align 8
  store ptr %0, ptr %2, align 8, !tbaa !7
  %3 = load ptr, ptr %2, align 8
  %4 = call noundef nonnull align 8 dereferenceable(24) ptr @_ZN5boost8variant26detail20variant_storage_implISt17integral_constantIbLb1EEJNS_6system10error_codeEEE3getES3_ImLm0EE(ptr noundef nonnull align 8 dereferenceable(24) %3) #15
  ret ptr %4
}

; Function Attrs: mustprogress nounwind uwtable
define linkonce_odr hidden noundef nonnull align 8 dereferenceable(40) ptr @_ZN5boost8variant26detail20variant_storage_implISt17integral_constantIbLb1EEJNS_4urls21segments_encoded_viewENS_6system10error_codeEEE3getES3_ImLm0EE(ptr noundef nonnull align 8 dereferenceable(40) %0) #2 comdat align 2 {
  %2 = alloca ptr, align 8
  store ptr %0, ptr %2, align 8, !tbaa !7
  %3 = load ptr, ptr %2, align 8
  ret ptr %3
}

; Function Attrs: mustprogress nounwind uwtable
define linkonce_odr hidden noundef nonnull align 8 dereferenceable(24) ptr @_ZN5boost8variant26detail20variant_storage_implISt17integral_constantIbLb1EEJNS1_4noneENS_4urls21segments_encoded_viewENS_6system10error_codeEEE3getILm2EEERNS_4mp116detail12mp_if_c_implIXltmiT_Li1EL_ZNS3_ImLm2EE5valueEEENSD_12mp_at_c_implINSC_7mp_listIJS7_S9_EEEXmiT_Li1EEEEJvEE4type4typeES3_ImXT_EE(ptr noundef nonnull align 8 dereferenceable(40) %0) #2 comdat align 2 {
  %2 = alloca ptr, align 8
  store ptr %0, ptr %2, align 8, !tbaa !7
  %3 = load ptr, ptr %2, align 8
  %4 = call noundef nonnull align 8 dereferenceable(24) ptr @_ZN5boost8variant26detail20variant_storage_implISt17integral_constantIbLb1EEJNS_4urls21segments_encoded_viewENS_6system10error_codeEEE3getILm1EEERNS_4mp116detail12mp_if_c_implIXltmiT_Li1EL_ZNS3_ImLm1EE5valueEEENSC_12mp_at_c_implINSB_7mp_listIJS8_EEEXmiT_Li1EEEEJvEE4type4typeES3_ImXT_EE(ptr noundef nonnull align 8 dereferenceable(40) %3) #15
  ret ptr %4
}

; Function Attrs: mustprogress nounwind uwtable
define linkonce_odr hidden noundef nonnull align 8 dereferenceable(40) ptr @_ZN5boost8variant26detail20variant_storage_implISt17integral_constantIbLb1EEJNS1_4noneENS_4urls21segments_encoded_viewENS_6system10error_codeEEE3getILm1EEERNS_4mp116detail12mp_if_c_implIXltmiT_Li1EL_ZNS3_ImLm2EE5valueEEENSD_12mp_at_c_implINSC_7mp_listIJS7_S9_EEEXmiT_Li1EEEEJvEE4type4typeES3_ImXT_EE(ptr noundef nonnull align 8 dereferenceable(40) %0) #2 comdat align 2 {
  %2 = alloca ptr, align 8
  store ptr %0, ptr %2, align 8, !tbaa !7
  %3 = load ptr, ptr %2, align 8
  %4 = call noundef nonnull align 8 dereferenceable(40) ptr @_ZN5boost8variant26detail20variant_storage_implISt17integral_constantIbLb1EEJNS_4urls21segments_encoded_viewENS_6system10error_codeEEE3getES3_ImLm0EE(ptr noundef nonnull align 8 dereferenceable(40) %3) #15
  ret ptr %4
}

; Function Attrs: mustprogress nounwind uwtable
define linkonce_odr hidden noundef nonnull align 8 dereferenceable(24) ptr @_ZN5boost8variant26detail17variant_base_implILb1ELb1EJNS_4urls21segments_encoded_viewENS_6system10error_codeEEE9_get_implILm1EEERNS_4mp116detail12mp_if_c_implIXltT_L_ZNSt17integral_constantImLm2EE5valueEEENSA_12mp_at_c_implINS0_7variantIJS4_S6_EEEXT_EEEJvEE4type4typeESC_ImXT_EE(ptr noundef nonnull align 8 dereferenceable(44) %0) #2 comdat align 2 {
  %2 = alloca ptr, align 8
  %3 = alloca i64, align 8
  store ptr %0, ptr %2, align 8, !tbaa !7
  %4 = load ptr, ptr %2, align 8
  call void @llvm.lifetime.start.p0(i64 8, ptr %3) #15
  store i64 2, ptr %3, align 8, !tbaa !17
  %5 = getelementptr inbounds nuw %"struct.boost::variant2::detail::variant_base_impl", ptr %4, i32 0, i32 0
  %6 = call noundef nonnull align 8 dereferenceable(24) ptr @_ZN5boost8variant26detail20variant_storage_implISt17integral_constantIbLb1EEJNS1_4noneENS_4urls21segments_encoded_viewENS_6system10error_codeEEE3getILm2EEERNS_4mp116detail12mp_if_c_implIXltmiT_Li1EL_ZNS3_ImLm2EE5valueEEENSD_12mp_at_c_implINSC_7mp_listIJS7_S9_EEEXmiT_Li1EEEEJvEE4type4typeES3_ImXT_EE(ptr noundef nonnull align 8 dereferenceable(40) %5) #15
  call void @llvm.lifetime.end.p0(i64 8, ptr %3) #15
  ret ptr %6
}

; Function Attrs: mustprogress nounwind uwtable
define linkonce_odr hidden noundef nonnull align 8 dereferenceable(40) ptr @_ZN5boost8variant26detail17variant_base_implILb1ELb1EJNS_4urls21segments_encoded_viewENS_6system10error_codeEEE9_get_implILm0EEERNS_4mp116detail12mp_if_c_implIXltT_L_ZNSt17integral_constantImLm2EE5valueEEENSA_12mp_at_c_implINS0_7variantIJS4_S6_EEEXT_EEEJvEE4type4typeESC_ImXT_EE(ptr noundef nonnull align 8 dereferenceable(44) %0) #2 comdat align 2 {
  %2 = alloca ptr, align 8
  %3 = alloca i64, align 8
  store ptr %0, ptr %2, align 8, !tbaa !7
  %4 = load ptr, ptr %2, align 8
  call void @llvm.lifetime.start.p0(i64 8, ptr %3) #15
  store i64 1, ptr %3, align 8, !tbaa !17
  %5 = getelementptr inbounds nuw %"struct.boost::variant2::detail::variant_base_impl", ptr %4, i32 0, i32 0
  %6 = call noundef nonnull align 8 dereferenceable(40) ptr @_ZN5boost8variant26detail20variant_storage_implISt17integral_constantIbLb1EEJNS1_4noneENS_4urls21segments_encoded_viewENS_6system10error_codeEEE3getILm1EEERNS_4mp116detail12mp_if_c_implIXltmiT_Li1EL_ZNS3_ImLm2EE5valueEEENSD_12mp_at_c_implINSC_7mp_listIJS7_S9_EEEXmiT_Li1EEEEJvEE4type4typeES3_ImXT_EE(ptr noundef nonnull align 8 dereferenceable(40) %5) #15
  call void @llvm.lifetime.end.p0(i64 8, ptr %3) #15
  ret ptr %6
}

; Function Attrs: mustprogress nounwind uwtable
define linkonce_odr hidden noundef i64 @_ZNK5boost8variant26detail17variant_base_implILb1ELb1EJNS_4urls21segments_encoded_viewENS_6system10error_codeEEE5indexEv(ptr noundef nonnull align 8 dereferenceable(44) %0) #2 comdat align 2 {
  %2 = alloca ptr, align 8
  store ptr %0, ptr %2, align 8, !tbaa !7
  %3 = load ptr, ptr %2, align 8
  %4 = getelementptr inbounds nuw %"struct.boost::variant2::detail::variant_base_impl", ptr %3, i32 0, i32 1
  %5 = load i32, ptr %4, align 8, !tbaa !24
  %6 = sub i32 %5, 1
  %7 = zext i32 %6 to i64
  ret i64 %7
}

; Function Attrs: mustprogress nounwind uwtable
define linkonce_odr hidden noundef nonnull align 8 dereferenceable(24) ptr @_ZN5boost8variant210unsafe_getILm1EJNS_4urls21segments_encoded_viewENS_6system10error_codeEEEERNS0_19variant_alternativeIXT_ENS0_7variantIJDpT0_EEEE4typeERSA_(ptr noundef nonnull align 8 dereferenceable(44) %0) #2 comdat {
  %2 = alloca ptr, align 8
  store ptr %0, ptr %2, align 8, !tbaa !7
  %3 = load ptr, ptr %2, align 8, !tbaa !7
  %4 = call noundef nonnull align 8 dereferenceable(24) ptr @_ZN5boost8variant26detail17variant_base_implILb1ELb1EJNS_4urls21segments_encoded_viewENS_6system10error_codeEEE9_get_implILm1EEERNS_4mp116detail12mp_if_c_implIXltT_L_ZNSt17integral_constantImLm2EE5valueEEENSA_12mp_at_c_implINS0_7variantIJS4_S6_EEEXT_EEEJvEE4type4typeESC_ImXT_EE(ptr noundef nonnull align 8 dereferenceable(44) %3) #15
  ret ptr %4
}

; Function Attrs: mustprogress nounwind uwtable
define linkonce_odr hidden noundef nonnull align 8 dereferenceable(40) ptr @_ZN5boost8variant210unsafe_getILm0EJNS_4urls21segments_encoded_viewENS_6system10error_codeEEEERNS0_19variant_alternativeIXT_ENS0_7variantIJDpT0_EEEE4typeERSA_(ptr noundef nonnull align 8 dereferenceable(44) %0) #2 comdat {
  %2 = alloca ptr, align 8
  store ptr %0, ptr %2, align 8, !tbaa !7
  %3 = load ptr, ptr %2, align 8, !tbaa !7
  %4 = call noundef nonnull align 8 dereferenceable(40) ptr @_ZN5boost8variant26detail17variant_base_implILb1ELb1EJNS_4urls21segments_encoded_viewENS_6system10error_codeEEE9_get_implILm0EEERNS_4mp116detail12mp_if_c_implIXltT_L_ZNSt17integral_constantImLm2EE5valueEEENSA_12mp_at_c_implINS0_7variantIJS4_S6_EEEXT_EEEJvEE4type4typeESC_ImXT_EE(ptr noundef nonnull align 8 dereferenceable(44) %3) #15
  ret ptr %4
}

; Function Attrs: mustprogress nounwind uwtable
define linkonce_odr hidden noundef zeroext i1 @_ZNK5boost6system6resultINS_4urls21segments_encoded_viewENS0_10error_codeEE9has_valueEv(ptr noundef nonnull align 8 dereferenceable(48) %0) #2 comdat align 2 {
  %2 = alloca ptr, align 8
  store ptr %0, ptr %2, align 8, !tbaa !7
  %3 = load ptr, ptr %2, align 8
  %4 = getelementptr inbounds nuw %"class.boost::system::result", ptr %3, i32 0, i32 0
  %5 = call noundef i64 @_ZNK5boost8variant26detail17variant_base_implILb1ELb1EJNS_4urls21segments_encoded_viewENS_6system10error_codeEEE5indexEv(ptr noundef nonnull align 8 dereferenceable(44) %4) #15
  %6 = icmp eq i64 %5, 0
  ret i1 %6
}

; Function Attrs: mustprogress uwtable
define linkonce_odr hidden noundef nonnull align 8 dereferenceable(40) ptr @_ZNR5boost6system6resultINS_4urls21segments_encoded_viewENS0_10error_codeEE5valueERKNS_15source_locationE(ptr noundef nonnull align 8 dereferenceable(48) %0, ptr noundef nonnull align 8 dereferenceable(24) %1) #5 comdat align 2 {
  %3 = alloca ptr, align 8
  %4 = alloca ptr, align 8
  store ptr %0, ptr %3, align 8, !tbaa !7
  store ptr %1, ptr %4, align 8, !tbaa !7
  %5 = load ptr, ptr %3, align 8
  %6 = call noundef zeroext i1 @_ZNK5boost6system6resultINS_4urls21segments_encoded_viewENS0_10error_codeEE9has_valueEv(ptr noundef nonnull align 8 dereferenceable(48) %5) #15
  br i1 %6, label %7, label %10

7:                                                ; preds = %2
  %8 = getelementptr inbounds nuw %"class.boost::system::result", ptr %5, i32 0, i32 0
  %9 = call noundef nonnull align 8 dereferenceable(40) ptr @_ZN5boost8variant210unsafe_getILm0EJNS_4urls21segments_encoded_viewENS_6system10error_codeEEEERNS0_19variant_alternativeIXT_ENS0_7variantIJDpT0_EEEE4typeERSA_(ptr noundef nonnull align 8 dereferenceable(44) %8)
  ret ptr %9

10:                                               ; preds = %2
  %11 = getelementptr inbounds nuw %"class.boost::system::result", ptr %5, i32 0, i32 0
  %12 = call noundef nonnull align 8 dereferenceable(24) ptr @_ZN5boost8variant210unsafe_getILm1EJNS_4urls21segments_encoded_viewENS_6system10error_codeEEEERNS0_19variant_alternativeIXT_ENS0_7variantIJDpT0_EEEE4typeERSA_(ptr noundef nonnull align 8 dereferenceable(44) %11)
  %13 = load ptr, ptr %4, align 8, !tbaa !7
  call void @_ZN5boost6system26throw_exception_from_errorERKNS0_10error_codeERKNS_15source_locationE(ptr noundef nonnull align 8 dereferenceable(24) %12, ptr noundef nonnull align 8 dereferenceable(24) %13) #17
  unreachable
}

; Function Attrs: mustprogress uwtable
define linkonce_odr hidden void @_ZNO5boost6system6resultINS_4urls21segments_encoded_viewENS0_10error_codeEE5valueIS3_EENSt9enable_ifIXsr3std21is_move_constructibleIT_EE5valueES3_E4typeERKNS_15source_locationE(ptr dead_on_unwind noalias writable sret(%"class.boost::urls::segments_encoded_view") align 8 %0, ptr noundef nonnull align 8 dereferenceable(48) %1, ptr noundef nonnull align 8 dereferenceable(24) %2) #5 comdat align 2 {
  %4 = alloca ptr, align 8
  %5 = alloca ptr, align 8
  store ptr %1, ptr %4, align 8, !tbaa !7
  store ptr %2, ptr %5, align 8, !tbaa !7
  %6 = load ptr, ptr %4, align 8
  %7 = load ptr, ptr %5, align 8, !tbaa !7
  %8 = call noundef nonnull align 8 dereferenceable(40) ptr @_ZNR5boost6system6resultINS_4urls21segments_encoded_viewENS0_10error_codeEE5valueERKNS_15source_locationE(ptr noundef nonnull align 8 dereferenceable(48) %6, ptr noundef nonnull align 8 dereferenceable(24) %7)
  call void @llvm.memcpy.p0.p0.i64(ptr align 8 %0, ptr align 8 %8, i64 40, i1 false)
  ret void
}

; Function Attrs: mustprogress nounwind uwtable
define linkonce_odr hidden void @_ZN5boost15source_locationC2EPKcjS2_j(ptr noundef nonnull align 8 dereferenceable(24) %0, ptr noundef %1, i32 noundef %2, ptr noundef %3, i32 noundef %4) unnamed_addr #2 comdat align 2 {
  %6 = alloca ptr, align 8
  %7 = alloca ptr, align 8
  %8 = alloca i32, align 4
  %9 = alloca ptr, align 8
  %10 = alloca i32, align 4
  store ptr %0, ptr %6, align 8, !tbaa !7
  store ptr %1, ptr %7, align 8, !tbaa !7
  store i32 %2, ptr %8, align 4, !tbaa !3
  store ptr %3, ptr %9, align 8, !tbaa !7
  store i32 %4, ptr %10, align 4, !tbaa !3
  %11 = load ptr, ptr %6, align 8
  %12 = getelementptr inbounds nuw %"struct.boost::source_location", ptr %11, i32 0, i32 0
  %13 = load ptr, ptr %7, align 8, !tbaa !7
  store ptr %13, ptr %12, align 8, !tbaa !19
  %14 = getelementptr inbounds nuw %"struct.boost::source_location", ptr %11, i32 0, i32 1
  %15 = load ptr, ptr %9, align 8, !tbaa !7
  store ptr %15, ptr %14, align 8, !tbaa !21
  %16 = getelementptr inbounds nuw %"struct.boost::source_location", ptr %11, i32 0, i32 2
  %17 = load i32, ptr %8, align 4, !tbaa !3
  store i32 %17, ptr %16, align 8, !tbaa !22
  %18 = getelementptr inbounds nuw %"struct.boost::source_location", ptr %11, i32 0, i32 3
  %19 = load i32, ptr %10, align 4, !tbaa !3
  store i32 %19, ptr %18, align 4, !tbaa !23
  ret void
}

; Function Attrs: mustprogress uwtable
define void @_ZN5boost4urls21segments_encoded_viewC2ENS_4core17basic_string_viewIcEE(ptr noundef nonnull align 8 dereferenceable(40) %0, ptr %1, i64 %2) unnamed_addr #5 align 2 {
  %4 = alloca %"class.boost::core::basic_string_view", align 8
  %5 = alloca ptr, align 8
  %6 = alloca %"class.boost::urls::segments_encoded_view", align 8
  %7 = alloca %"class.boost::system::result", align 8
  %8 = alloca %"class.boost::core::basic_string_view", align 8
  %9 = alloca %"struct.boost::source_location", align 8
  %10 = getelementptr inbounds nuw { ptr, i64 }, ptr %4, i32 0, i32 0
  store ptr %1, ptr %10, align 8
  %11 = getelementptr inbounds nuw { ptr, i64 }, ptr %4, i32 0, i32 1
  store i64 %2, ptr %11, align 8
  store ptr %0, ptr %5, align 8, !tbaa !7
  %12 = load ptr, ptr %5, align 8
  call void @llvm.lifetime.start.p0(i64 40, ptr %6) #15
  call void @llvm.lifetime.start.p0(i64 48, ptr %7) #15
  call void @llvm.memcpy.p0.p0.i64(ptr align 8 %8, ptr align 8 %4, i64 16, i1 false), !tbaa.struct !16
  %13 = getelementptr inbounds nuw { ptr, i64 }, ptr %8, i32 0, i32 0
  %14 = load ptr, ptr %13, align 8
  %15 = getelementptr inbounds nuw { ptr, i64 }, ptr %8, i32 0, i32 1
  %16 = load i64, ptr %15, align 8
  call void @_ZN5boost4urls10parse_pathENS_4core17basic_string_viewIcEE(ptr dead_on_unwind writable sret(%"class.boost::system::result") align 8 %7, ptr %14, i64 %16) #15
  call void @llvm.lifetime.start.p0(i64 24, ptr %9) #15
  call void @_ZN5boost15source_locationC2EPKcjS2_j(ptr noundef nonnull align 8 dereferenceable(24) %9, ptr noundef @.str, i32 noundef 31, ptr noundef @.str.1, i32 noundef 13) #15
  call void @_ZNO5boost6system6resultINS_4urls21segments_encoded_viewENS0_10error_codeEE5valueIS3_EENSt9enable_ifIXsr3std21is_move_constructibleIT_EE5valueES3_E4typeERKNS_15source_locationE(ptr dead_on_unwind writable sret(%"class.boost::urls::segments_encoded_view") align 8 %6, ptr noundef nonnull align 8 dereferenceable(48) %7, ptr noundef nonnull align 8 dereferenceable(24) %9)
  call void @llvm.memcpy.p0.p0.i64(ptr align 8 %12, ptr align 8 %6, i64 40, i1 false)
  call void @llvm.lifetime.end.p0(i64 24, ptr %9) #15
  call void @llvm.lifetime.end.p0(i64 48, ptr %7) #15
  call void @llvm.lifetime.end.p0(i64 40, ptr %6) #15
  ret void
}